target datalayout = "e-m:e-p270:32:32-p271:32:32-p272:64:64-i64:64-i128:128-f80:128-n8:16:32:64-S128"
target triple = "x86_64-pc-linux-gnu"

%struct.FLAC__StreamMetadata_VorbisComment_Entry = type { i32, ptr }

; Function Attrs: inlinehint nounwind sspstrong uwtable
define internal ptr @safe_malloc_(i64 noundef %0) #9 {
  %2 = alloca i64, align 8
  store i64 %0, ptr %2, align 8, !tbaa !28
  %3 = load i64, ptr %2, align 8, !tbaa !28
  %4 = icmp ne i64 %3, 0
  br i1 %4, label %8, label %5

5:                                                ; preds = %1
  %6 = load i64, ptr %2, align 8, !tbaa !28
  %7 = add i64 %6, 1
  store i64 %7, ptr %2, align 8, !tbaa !28
  br label %8

8:                                                ; preds = %5, %1
  %9 = load i64, ptr %2, align 8, !tbaa !28
  %10 = call noalias ptr @malloc(i64 noundef %9) #16
  ret ptr %10
}

; Function Attrs: alwaysinline nounwind
define internal ptr @memcpy.inline(ptr noalias nonnull %0, ptr noalias nonnull %1, i64 %2) #5 {
  %4 = alloca ptr, align 8
  %5 = alloca ptr, align 8
  %6 = alloca i64, align 8
  store ptr %0, ptr %4, align 8, !tbaa !27
  store ptr %1, ptr %5, align 8, !tbaa !27
  store i64 %2, ptr %6, align 8, !tbaa !28
  %7 = load ptr, ptr %4, align 8, !tbaa !27
  %8 = load ptr, ptr %5, align 8, !tbaa !27
  %9 = load i64, ptr %6, align 8, !tbaa !28
  %10 = load ptr, ptr %4, align 8, !tbaa !27
  %11 = call i64 @llvm.objectsize.i64.p0(ptr %10, i1 false, i1 true, i1 false)
  %12 = call ptr @__memcpy_chk(ptr noundef %7, ptr noundef %8, i64 noundef %9, i64 noundef %11) #12
  ret ptr %12
}

; Function Attrs: inlinehint nounwind sspstrong uwtable
define internal ptr @safe_malloc_add_2op_(i64 noundef %0, i64 noundef %1) #9 {
  %3 = alloca ptr, align 8
  %4 = alloca i64, align 8
  %5 = alloca i64, align 8
  store i64 %0, ptr %4, align 8, !tbaa !28
  store i64 %1, ptr %5, align 8, !tbaa !28
  %6 = load i64, ptr %4, align 8, !tbaa !28
  %7 = load i64, ptr %5, align 8, !tbaa !28
  %8 = add i64 %7, %6
  store i64 %8, ptr %5, align 8, !tbaa !28
  %9 = load i64, ptr %5, align 8, !tbaa !28
  %10 = load i64, ptr %4, align 8, !tbaa !28
  %11 = icmp ult i64 %9, %10
  br i1 %11, label %12, label %13

12:                                               ; preds = %2
  store ptr null, ptr %3, align 8
  br label %16

13:                                               ; preds = %2
  %14 = load i64, ptr %5, align 8, !tbaa !28
  %15 = call ptr @safe_malloc_(i64 noundef %14)
  store ptr %15, ptr %3, align 8
  br label %16

16:                                               ; preds = %13, %12
  %17 = load ptr, ptr %3, align 8
  ret ptr %17
}

; Function Attrs: nounwind sspstrong uwtable
define i32 @FLAC__metadata_object_vorbiscomment_entry_to_name_value_pair(i32 %0, ptr %1, ptr noundef %2, ptr noundef %3) #0 {
  %5 = alloca i32, align 4
  %6 = alloca %struct.FLAC__StreamMetadata_VorbisComment_Entry, align 8
  %7 = alloca ptr, align 8
  %8 = alloca ptr, align 8
  %9 = alloca ptr, align 8
  %10 = alloca i64, align 8
  %11 = alloca i64, align 8
  %12 = alloca i32, align 4
  %13 = getelementptr inbounds nuw { i32, ptr }, ptr %6, i32 0, i32 0
  store i32 %0, ptr %13, align 8
  %14 = getelementptr inbounds nuw { i32, ptr }, ptr %6, i32 0, i32 1
  store ptr %1, ptr %14, align 8
  store ptr %2, ptr %7, align 8, !tbaa !17
  store ptr %3, ptr %8, align 8, !tbaa !17
  %15 = getelementptr inbounds nuw %struct.FLAC__StreamMetadata_VorbisComment_Entry, ptr %6, i32 0, i32 1
  %16 = load ptr, ptr %15, align 8, !tbaa !29
  %17 = getelementptr inbounds nuw %struct.FLAC__StreamMetadata_VorbisComment_Entry, ptr %6, i32 0, i32 0
  %18 = load i32, ptr %17, align 8, !tbaa !19
  %19 = call i32 @FLAC__format_vorbiscomment_entry_is_legal(ptr noundef %16, i32 noundef %18)
  %20 = icmp ne i32 %19, 0
  br i1 %20, label %22, label %21

21:                                               ; preds = %4
  store i32 0, ptr %5, align 4
  br label %85

22:                                               ; preds = %4
  call void @llvm.lifetime.start.p0(i64 8, ptr %9) #12
  %23 = getelementptr inbounds nuw %struct.FLAC__StreamMetadata_VorbisComment_Entry, ptr %6, i32 0, i32 1
  %24 = load ptr, ptr %23, align 8, !tbaa !29
  %25 = getelementptr inbounds nuw %struct.FLAC__StreamMetadata_VorbisComment_Entry, ptr %6, i32 0, i32 0
  %26 = load i32, ptr %25, align 8, !tbaa !19
  %27 = zext i32 %26 to i64
  %28 = call ptr @memchr(ptr noundef %24, i32 noundef 61, i64 noundef %27) #14
  store ptr %28, ptr %9, align 8, !tbaa !14
  call void @llvm.lifetime.start.p0(i64 8, ptr %10) #12
  %29 = load ptr, ptr %9, align 8, !tbaa !14
  %30 = getelementptr inbounds nuw %struct.FLAC__StreamMetadata_VorbisComment_Entry, ptr %6, i32 0, i32 1
  %31 = load ptr, ptr %30, align 8, !tbaa !29
  %32 = ptrtoint ptr %29 to i64
  %33 = ptrtoint ptr %31 to i64
  %34 = sub i64 %32, %33
  store i64 %34, ptr %10, align 8, !tbaa !28
  call void @llvm.lifetime.start.p0(i64 8, ptr %11) #12
  %35 = getelementptr inbounds nuw %struct.FLAC__StreamMetadata_VorbisComment_Entry, ptr %6, i32 0, i32 0
  %36 = load i32, ptr %35, align 8, !tbaa !19
  %37 = zext i32 %36 to i64
  %38 = load i64, ptr %10, align 8, !tbaa !28
  %39 = sub i64 %37, %38
  %40 = sub i64 %39, 1
  store i64 %40, ptr %11, align 8, !tbaa !28
  %41 = load ptr, ptr %9, align 8, !tbaa !14
  %42 = icmp eq ptr %41, null
  br i1 %42, label %43, label %44

43:                                               ; preds = %22
  store i32 0, ptr %5, align 4
  store i32 1, ptr %12, align 4
  br label %82

44:                                               ; preds = %22
  %45 = load i64, ptr %10, align 8, !tbaa !28
  %46 = call ptr @safe_malloc_add_2op_(i64 noundef %45, i64 noundef 1)
  %47 = load ptr, ptr %7, align 8, !tbaa !17
  store ptr %46, ptr %47, align 8, !tbaa !14
  %48 = icmp eq ptr %46, null
  br i1 %48, label %49, label %50

49:                                               ; preds = %44
  store i32 0, ptr %5, align 4
  store i32 1, ptr %12, align 4
  br label %82

50:                                               ; preds = %44
  %51 = load i64, ptr %11, align 8, !tbaa !28
  %52 = call ptr @safe_malloc_add_2op_(i64 noundef %51, i64 noundef 1)
  %53 = load ptr, ptr %8, align 8, !tbaa !17
  store ptr %52, ptr %53, align 8, !tbaa !14
  %54 = icmp eq ptr %52, null
  br i1 %54, label %55, label %58

55:                                               ; preds = %50
  %56 = load ptr, ptr %7, align 8, !tbaa !17
  %57 = load ptr, ptr %56, align 8, !tbaa !14
  call void @free(ptr noundef %57) #12
  store i32 0, ptr %5, align 4
  store i32 1, ptr %12, align 4
  br label %82

58:                                               ; preds = %50
  %59 = load ptr, ptr %7, align 8, !tbaa !17
  %60 = load ptr, ptr %59, align 8, !tbaa !14
  %61 = getelementptr inbounds nuw %struct.FLAC__StreamMetadata_VorbisComment_Entry, ptr %6, i32 0, i32 1
  %62 = load ptr, ptr %61, align 8, !tbaa !29
  %63 = load i64, ptr %10, align 8, !tbaa !28
  %64 = call ptr @memcpy.inline(ptr noundef %60, ptr noundef %62, i64 noundef %63) #12
  %65 = load ptr, ptr %8, align 8, !tbaa !17
  %66 = load ptr, ptr %65, align 8, !tbaa !14
  %67 = getelementptr inbounds nuw %struct.FLAC__StreamMetadata_VorbisComment_Entry, ptr %6, i32 0, i32 1
  %68 = load ptr, ptr %67, align 8, !tbaa !29
  %69 = load i64, ptr %10, align 8, !tbaa !28
  %70 = getelementptr inbounds nuw i8, ptr %68, i64 %69
  %71 = getelementptr inbounds i8, ptr %70, i64 1
  %72 = load i64, ptr %11, align 8, !tbaa !28
  %73 = call ptr @memcpy.inline(ptr noundef %66, ptr noundef %71, i64 noundef %72) #12
  %74 = load ptr, ptr %7, align 8, !tbaa !17
  %75 = load ptr, ptr %74, align 8, !tbaa !14
  %76 = load i64, ptr %10, align 8, !tbaa !28
  %77 = getelementptr inbounds nuw i8, ptr %75, i64 %76
  store i8 0, ptr %77, align 1, !tbaa !16
  %78 = load ptr, ptr %8, align 8, !tbaa !17
  %79 = load ptr, ptr %78, align 8, !tbaa !14
  %80 = load i64, ptr %11, align 8, !tbaa !28
  %81 = getelementptr inbounds nuw i8, ptr %79, i64 %80
  store i8 0, ptr %81, align 1, !tbaa !16
  store i32 0, ptr %12, align 4
  br label %82

82:                                               ; preds = %58, %55, %49, %43
  call void @llvm.lifetime.end.p0(i64 8, ptr %11) #12
  call void @llvm.lifetime.end.p0(i64 8, ptr %10) #12
  call void @llvm.lifetime.end.p0(i64 8, ptr %9) #12
  %83 = load i32, ptr %12, align 4
  switch i32 %83, label %87 [
    i32 0, label %84
    i32 1, label %85
  ]

84:                                               ; preds = %82
  store i32 1, ptr %5, align 4
  br label %85

85:                                               ; preds = %84, %82, %21
  %86 = load i32, ptr %5, align 4
  ret i32 %86

87:                                               ; preds = %82
  unreachable
}