; Function Attrs: nounwind sspstrong uwtable
define range(i32 0, 2) i32 @FLAC__metadata_object_vorbiscomment_entry_to_name_value_pair(i32 %0, ptr %1, ptr noundef captures(none) %2, ptr noundef captures(none) %3) local_unnamed_addr #0 {
  %5 = tail call i32 @FLAC__format_vorbiscomment_entry_is_legal(ptr noundef %1, i32 noundef %0) #31
  %.not = icmp eq i32 %5, 0
  br i1 %.not, label %.thread, label %6

6:                                                ; preds = %4
  %7 = zext i32 %0 to i64
  %8 = tail call ptr @memchr(ptr noundef %1, i32 noundef 61, i64 noundef %7) #29
  %9 = ptrtoint ptr %8 to i64
  %10 = ptrtoint ptr %1 to i64
  %11 = sub i64 %9, %10
  %12 = xor i64 %11, -1
  %13 = add i64 %12, %7
  %14 = icmp eq ptr %8, null
  br i1 %14, label %.thread, label %15

15:                                               ; preds = %6
  %16 = icmp eq i64 %11, -1
  br i1 %16, label %safe_malloc_add_2op_.exit.thread, label %safe_malloc_add_2op_.exit

safe_malloc_add_2op_.exit.thread:                 ; preds = %15
  store ptr null, ptr %2, align 8, !tbaa !10
  br label %.thread

safe_malloc_add_2op_.exit:                        ; preds = %15
  %17 = add nuw i64 %11, 1
  %18 = tail call noalias noundef ptr @malloc(i64 noundef %17) #30
  store ptr %18, ptr %2, align 8, !tbaa !10
  %19 = icmp eq ptr %18, null
  br i1 %19, label %.thread, label %20

20:                                               ; preds = %safe_malloc_add_2op_.exit
  %21 = icmp eq i64 %13, -1
  br i1 %21, label %safe_malloc_add_2op_.exit26.thread, label %safe_malloc_add_2op_.exit26

safe_malloc_add_2op_.exit26.thread:               ; preds = %20
  store ptr null, ptr %3, align 8, !tbaa !10
  br label %25

safe_malloc_add_2op_.exit26:                      ; preds = %20
  %22 = sub i64 %7, %11
  %23 = tail call noalias noundef ptr @malloc(i64 noundef %22) #30
  store ptr %23, ptr %3, align 8, !tbaa !10
  %24 = icmp eq ptr %23, null
  br i1 %24, label %25, label %27

25:                                               ; preds = %safe_malloc_add_2op_.exit26.thread, %safe_malloc_add_2op_.exit26
  %26 = load ptr, ptr %2, align 8, !tbaa !10
  tail call void @free(ptr noundef %26) #31
  br label %.thread

27:                                               ; preds = %safe_malloc_add_2op_.exit26
  %28 = load ptr, ptr %2, align 8, !tbaa !10
  tail call void @llvm.memcpy.p0.p0.i64(ptr noundef nonnull align 1 %28, ptr noundef nonnull align 1 %1, i64 noundef %11, i1 noundef false) #31
  %29 = load ptr, ptr %3, align 8, !tbaa !10
  %30 = getelementptr inbounds nuw i8, ptr %1, i64 %11
  %31 = getelementptr inbounds nuw i8, ptr %30, i64 1
  tail call void @llvm.memcpy.p0.p0.i64(ptr noundef nonnull align 1 %29, ptr noundef nonnull align 1 %31, i64 noundef %13, i1 noundef false) #31
  %32 = load ptr, ptr %2, align 8, !tbaa !10
  %33 = getelementptr inbounds nuw i8, ptr %32, i64 %11
  store i8 0, ptr %33, align 1, !tbaa !13
  %34 = load ptr, ptr %3, align 8, !tbaa !10
  %35 = getelementptr inbounds nuw i8, ptr %34, i64 %13
  store i8 0, ptr %35, align 1, !tbaa !13
  br label %.thread

.thread:                                          ; preds = %safe_malloc_add_2op_.exit.thread, %safe_malloc_add_2op_.exit, %6, %25, %27, %4
  %.024 = phi i32 [ 0, %4 ], [ 1, %27 ], [ 0, %25 ], [ 0, %6 ], [ 0, %safe_malloc_add_2op_.exit ], [ 0, %safe_malloc_add_2op_.exit.thread ]
  ret i32 %.024
}